target datalayout = "e-m:e-p270:32:32-p271:32:32-p272:64:64-i64:64-i128:128-f80:128-n8:16:32:64-S128"
target triple = "x86_64-pc-linux-gnu"

%struct._lv_global_t = type { i8, i8, %struct.lv_ll_t, ptr, ptr, %struct.lv_ll_t, i8, i32, i32, ptr, %struct.lv_ll_t, ptr, %struct.lv_ll_t, ptr, ptr, i32, ptr, i8, i32, i32, ptr, i32, %struct.lv_timer_state_t, %struct.lv_anim_state_t, %struct.lv_tick_state_t, %struct._lv_draw_buf_handlers_t, %struct._lv_draw_buf_handlers_t, %struct._lv_draw_buf_handlers_t, %struct.lv_ll_t, ptr, ptr, %struct.lv_draw_global_info_t, [4 x %struct.lv_draw_sw_mask_radius_circle_dsc_t], ptr, ptr, ptr, %struct.lv_tlsf_state_t, %struct.lv_ll_t, ptr, ptr, %struct.lv_style_t, i64, ptr, i32, ptr }
%struct.lv_timer_state_t = type { %struct.lv_ll_t, i8, i8, i8, i8, i32, i8, i32, i32, i32, i32, ptr, ptr }
%struct.lv_anim_state_t = type { i8, i8, ptr, %struct.lv_ll_t }
%struct.lv_tick_state_t = type { i32, i8, ptr, ptr }
%struct._lv_draw_buf_handlers_t = type { ptr, ptr, ptr, ptr, ptr, ptr }
%struct.lv_draw_global_info_t = type { ptr, i32, i32, i32, i32, i8 }
%struct.lv_draw_sw_mask_radius_circle_dsc_t = type { ptr, ptr, ptr, ptr, i32, i32, i32 }
%struct.lv_tlsf_state_t = type { ptr, i64, i64, %struct.lv_ll_t }
%struct.lv_ll_t = type { i32, ptr, ptr }
%struct.lv_style_t = type { ptr, i32, i8 }
%struct.lv_mem_monitor_t = type { i64, i64, i64, i64, i64, i64, i8, i8 }

@lv_global = external global %struct._lv_global_t, align 8

; Function Attrs: inlinehint nounwind uwtable
define internal void @lv_memzero(ptr noundef %0, i64 noundef %1) #3 {
  %3 = alloca ptr, align 8
  %4 = alloca i64, align 8
  store ptr %0, ptr %3, align 8, !tbaa !30
  store i64 %1, ptr %4, align 8, !tbaa !31
  %5 = load ptr, ptr %3, align 8, !tbaa !30
  %6 = load i64, ptr %4, align 8, !tbaa !31
  call void @lv_memset(ptr noundef %5, i8 noundef zeroext 0, i64 noundef %6)
  ret void
}

; Function Attrs: nounwind uwtable
define void @lv_mem_monitor_core(ptr noundef %0) #0 {
  %2 = alloca ptr, align 8
  %3 = alloca ptr, align 8
  store ptr %0, ptr %2, align 8, !tbaa !30
  %4 = load ptr, ptr %2, align 8, !tbaa !30
  call void @lv_memzero(ptr noundef %4, i64 noundef 56)
  call void @llvm.lifetime.start.p0(i64 8, ptr %3) #4
  %5 = call ptr @lv_ll_get_head(ptr noundef getelementptr inbounds nuw (%struct.lv_tlsf_state_t, ptr getelementptr inbounds nuw (%struct._lv_global_t, ptr @lv_global, i32 0, i32 36), i32 0, i32 3))
  store ptr %5, ptr %3, align 8, !tbaa !30
  br label %6

6:                                                ; preds = %13, %1
  %7 = load ptr, ptr %3, align 8, !tbaa !30
  %8 = icmp ne ptr %7, null
  br i1 %8, label %9, label %16

9:                                                ; preds = %6
  %10 = load ptr, ptr %3, align 8, !tbaa !30
  %11 = load ptr, ptr %10, align 8, !tbaa !30
  %12 = load ptr, ptr %2, align 8, !tbaa !30
  call void @lv_tlsf_walk_pool(ptr noundef %11, ptr noundef @lv_mem_walker, ptr noundef %12)
  br label %13

13:                                               ; preds = %9
  %14 = load ptr, ptr %3, align 8, !tbaa !30
  %15 = call ptr @lv_ll_get_next(ptr noundef getelementptr inbounds nuw (%struct.lv_tlsf_state_t, ptr getelementptr inbounds nuw (%struct._lv_global_t, ptr @lv_global, i32 0, i32 36), i32 0, i32 3), ptr noundef %14)
  store ptr %15, ptr %3, align 8, !tbaa !30
  br label %6, !llvm.loop !36

16:                                               ; preds = %6
  %17 = load ptr, ptr %2, align 8, !tbaa !30
  %18 = getelementptr inbounds nuw %struct.lv_mem_monitor_t, ptr %17, i32 0, i32 2
  %19 = load i64, ptr %18, align 8, !tbaa !37
  %20 = mul i64 100, %19
  %21 = load ptr, ptr %2, align 8, !tbaa !30
  %22 = getelementptr inbounds nuw %struct.lv_mem_monitor_t, ptr %21, i32 0, i32 0
  %23 = load i64, ptr %22, align 8, !tbaa !39
  %24 = udiv i64 %20, %23
  %25 = sub i64 100, %24
  %26 = trunc i64 %25 to i8
  %27 = load ptr, ptr %2, align 8, !tbaa !30
  %28 = getelementptr inbounds nuw %struct.lv_mem_monitor_t, ptr %27, i32 0, i32 6
  store i8 %26, ptr %28, align 8, !tbaa !40
  %29 = load ptr, ptr %2, align 8, !tbaa !30
  %30 = getelementptr inbounds nuw %struct.lv_mem_monitor_t, ptr %29, i32 0, i32 2
  %31 = load i64, ptr %30, align 8, !tbaa !37
  %32 = icmp ugt i64 %31, 0
  br i1 %32, label %33, label %53

33:                                               ; preds = %16
  %34 = load ptr, ptr %2, align 8, !tbaa !30
  %35 = getelementptr inbounds nuw %struct.lv_mem_monitor_t, ptr %34, i32 0, i32 3
  %36 = load i64, ptr %35, align 8, !tbaa !41
  %37 = mul i64 %36, 100
  %38 = load ptr, ptr %2, align 8, !tbaa !30
  %39 = getelementptr inbounds nuw %struct.lv_mem_monitor_t, ptr %38, i32 0, i32 2
  %40 = load i64, ptr %39, align 8, !tbaa !37
  %41 = udiv i64 %37, %40
  %42 = trunc i64 %41 to i8
  %43 = load ptr, ptr %2, align 8, !tbaa !30
  %44 = getelementptr inbounds nuw %struct.lv_mem_monitor_t, ptr %43, i32 0, i32 7
  store i8 %42, ptr %44, align 1, !tbaa !42
  %45 = load ptr, ptr %2, align 8, !tbaa !30
  %46 = getelementptr inbounds nuw %struct.lv_mem_monitor_t, ptr %45, i32 0, i32 7
  %47 = load i8, ptr %46, align 1, !tbaa !42
  %48 = zext i8 %47 to i32
  %49 = sub nsw i32 100, %48
  %50 = trunc i32 %49 to i8
  %51 = load ptr, ptr %2, align 8, !tbaa !30
  %52 = getelementptr inbounds nuw %struct.lv_mem_monitor_t, ptr %51, i32 0, i32 7
  store i8 %50, ptr %52, align 1, !tbaa !42
  br label %56

53:                                               ; preds = %16
  %54 = load ptr, ptr %2, align 8, !tbaa !30
  %55 = getelementptr inbounds nuw %struct.lv_mem_monitor_t, ptr %54, i32 0, i32 7
  store i8 0, ptr %55, align 1, !tbaa !42
  br label %56

56:                                               ; preds = %53, %33
  %57 = load i64, ptr getelementptr inbounds nuw (%struct.lv_tlsf_state_t, ptr getelementptr inbounds nuw (%struct._lv_global_t, ptr @lv_global, i32 0, i32 36), i32 0, i32 2), align 8, !tbaa !35
  %58 = load ptr, ptr %2, align 8, !tbaa !30
  %59 = getelementptr inbounds nuw %struct.lv_mem_monitor_t, ptr %58, i32 0, i32 5
  store i64 %57, ptr %59, align 8, !tbaa !43
  call void @llvm.lifetime.end.p0(i64 8, ptr %3) #4
  ret void
}