; Function Attrs: nounwind uwtable
define void @lv_mem_monitor_core(ptr noundef %0) local_unnamed_addr #0 {
  tail call void @lv_memset(ptr noundef %0, i8 noundef zeroext 0, i64 noundef 56) #4
  %2 = tail call ptr @lv_ll_get_head(ptr noundef nonnull getelementptr inbounds nuw (i8, ptr @lv_global, i64 808)) #4
  %.not18 = icmp eq ptr %2, null
  br i1 %.not18, label %._crit_edge, label %.lr.ph

.lr.ph:                                           ; preds = %1, %.lr.ph
  %.019 = phi ptr [ %4, %.lr.ph ], [ %2, %1 ]
  %3 = load ptr, ptr %.019, align 8, !tbaa !30
  tail call void @lv_tlsf_walk_pool(ptr noundef %3, ptr noundef nonnull @lv_mem_walker, ptr noundef %0) #4
  %4 = tail call ptr @lv_ll_get_next(ptr noundef nonnull getelementptr inbounds nuw (i8, ptr @lv_global, i64 808), ptr noundef nonnull %.019) #4
  %.not = icmp eq ptr %4, null
  br i1 %.not, label %._crit_edge, label %.lr.ph, !llvm.loop !35

._crit_edge:                                      ; preds = %.lr.ph, %1
  %5 = getelementptr inbounds nuw i8, ptr %0, i64 16
  %6 = load i64, ptr %5, align 8, !tbaa !36
  %7 = mul i64 %6, 100
  %8 = load i64, ptr %0, align 8, !tbaa !38
  %9 = udiv i64 %7, %8
  %10 = trunc i64 %9 to i8
  %11 = sub i8 100, %10
  %12 = getelementptr inbounds nuw i8, ptr %0, i64 48
  store i8 %11, ptr %12, align 8, !tbaa !39
  %.not17 = icmp eq i64 %6, 0
  br i1 %.not17, label %20, label %13

13:                                               ; preds = %._crit_edge
  %14 = getelementptr inbounds nuw i8, ptr %0, i64 24
  %15 = load i64, ptr %14, align 8, !tbaa !40
  %16 = mul i64 %15, 100
  %17 = udiv i64 %16, %6
  %18 = trunc i64 %17 to i8
  %19 = sub i8 100, %18
  br label %20

20:                                               ; preds = %._crit_edge, %13
  %.sink = phi i8 [ %19, %13 ], [ 0, %._crit_edge ]
  %21 = getelementptr inbounds nuw i8, ptr %0, i64 49
  store i8 %.sink, ptr %21, align 1, !tbaa !41
  %22 = load i64, ptr getelementptr inbounds nuw (i8, ptr @lv_global, i64 800), align 8, !tbaa !34
  %23 = getelementptr inbounds nuw i8, ptr %0, i64 40
  store i64 %22, ptr %23, align 8, !tbaa !42
  ret void
}